target datalayout = "e-m:e-p270:32:32-p271:32:32-p272:64:64-i64:64-i128:128-f80:128-n8:16:32:64-S128"
target triple = "x86_64-pc-linux-gnu"

%struct._zend_executor_globals = type { %struct._zval_struct, %struct._zval_struct, [32 x ptr], ptr, ptr, %struct._zend_array, %struct._zend_array, ptr, i32, i8, %struct._zval_struct, i32, ptr, ptr, ptr, ptr, ptr, ptr, i64, ptr, ptr, i32, ptr, i32, i64, i32, i32, i32, i8, i8, %struct.zend_atomic_bool_s, %struct.zend_atomic_bool_s, ptr, i64, ptr, ptr, %struct._zend_array, %struct._zend_array, i32, i8, %struct._zval_struct, %struct._zval_struct, %struct._zend_stack, %struct._zend_stack, %struct._zend_stack, ptr, i32, i32, i64, ptr, ptr, ptr, %struct._zend_objects_store, %struct._zend_lazy_objects_store, ptr, ptr, ptr, [3 x %struct._zend_op], ptr, i8, i8, i64, i32, i32, ptr, [16 x %struct._HashTableIterator], ptr, %union._zend_function, %struct._zend_op, %struct._zend_array, i64, %struct.zend_get_gc_buffer, ptr, ptr, ptr, i64, i8, i32, ptr, ptr, i64, %struct._zend_call_stack, i64, i64, %struct._zend_strtod_state, [6 x ptr] }
%struct.zend_atomic_bool_s = type { i8 }
%struct._zval_struct = type { %union._zend_value, %union.anon, %union.anon.2 }
%union._zend_value = type { i64 }
%union.anon = type { i32 }
%union.anon.2 = type { i32 }
%struct._zend_stack = type { i32, i32, i32, ptr }
%struct._zend_objects_store = type { ptr, i32, i32, i32 }
%struct._zend_lazy_objects_store = type { %struct._zend_array }
%struct._HashTableIterator = type { ptr, i32, i32 }
%union._zend_function = type { %struct._zend_op_array }
%struct._zend_op_array = type { i8, [3 x i8], i32, ptr, ptr, ptr, i32, i32, ptr, ptr, ptr, ptr, i32, ptr, i32, i32, i32, ptr, ptr, ptr, ptr, ptr, i32, i32, ptr, ptr, ptr, i32, i32, i32, i32, ptr, ptr, [6 x ptr] }
%struct._zend_op = type { ptr, %union._znode_op, %union._znode_op, %union._znode_op, i32, i32, i8, i8, i8, i8 }
%union._znode_op = type { i32 }
%struct._zend_array = type { %struct._zend_refcounted_h, %union.anon.4, i32, %union.anon.6, i32, i32, i32, i32, i64, ptr }
%struct._zend_refcounted_h = type { i32, %union.anon.3 }
%union.anon.3 = type { i32 }
%union.anon.4 = type { i32 }
%union.anon.6 = type { ptr }
%struct.zend_get_gc_buffer = type { ptr, ptr, ptr }
%struct._zend_call_stack = type { ptr, i64 }
%struct._zend_strtod_state = type { [8 x ptr], ptr, ptr }
%struct._zend_object_handlers = type { i32, ptr, ptr, ptr, ptr, ptr, ptr, ptr, ptr, ptr, ptr, ptr, ptr, ptr, ptr, ptr, ptr, ptr, ptr, ptr, ptr, ptr, ptr, ptr, ptr }
%struct._zend_execute_data = type { ptr, ptr, ptr, ptr, %struct._zval_struct, ptr, ptr, ptr, ptr }
%struct._phar_archive_data = type { ptr, i32, ptr, i32, ptr, i32, [12 x i8], i64, %struct._zend_array, %struct._zend_array, %struct._zend_array, i32, i32, i32, ptr, ptr, i32, i32, i32, ptr, %struct._phar_metadata_tracker, i32, i16 }
%struct._phar_metadata_tracker = type { %struct._zval_struct, ptr }
%struct._zend_object = type { %struct._zend_refcounted_h, i32, i32, ptr, ptr, ptr, [1 x %struct._zval_struct] }

@executor_globals = external global %struct._zend_executor_globals, align 8
@spl_ce_BadMethodCallException = external global ptr, align 8
@.str.72 = private unnamed_addr constant [51 x i8] c"Cannot call method on an uninitialized Phar object\00", align 1

; Function Attrs: nounwind uwtable
define hidden void @zim_Phar_isCompressed(ptr noundef %0, ptr noundef %1) #0 {
  %3 = alloca ptr, align 8
  %4 = alloca ptr, align 8
  %5 = alloca ptr, align 8
  %6 = alloca ptr, align 8
  %7 = alloca i32, align 4
  %8 = alloca ptr, align 8
  %9 = alloca ptr, align 8
  store ptr %0, ptr %3, align 8, !tbaa !4
  store ptr %1, ptr %4, align 8, !tbaa !9
  %10 = load ptr, ptr %3, align 8, !tbaa !4
  %11 = getelementptr inbounds nuw %struct._zend_execute_data, ptr %10, i32 0, i32 4
  %12 = getelementptr inbounds nuw %struct._zval_struct, ptr %11, i32 0, i32 2
  %13 = load i32, ptr %12, align 4, !tbaa !13
  %14 = icmp eq i32 %13, 0
  %15 = xor i1 %14, true
  %16 = xor i1 %15, true
  %17 = zext i1 %16 to i32
  %18 = sext i32 %17 to i64
  %19 = call i64 @llvm.expect.i64(i64 %18, i64 1)
  %20 = icmp ne i64 %19, 0
  br i1 %20, label %21, label %22

21:                                               ; preds = %2
  br label %23

22:                                               ; preds = %2
  call void @zend_wrong_parameters_none_error()
  br label %23

23:                                               ; preds = %22, %21
  %24 = phi i32 [ 0, %21 ], [ -1, %22 ]
  %25 = icmp eq i32 %24, -1
  br i1 %25, label %26, label %31

26:                                               ; preds = %23
  br label %27

27:                                               ; preds = %26
  %28 = load ptr, ptr getelementptr inbounds nuw (%struct._zend_executor_globals, ptr @executor_globals, i32 0, i32 54), align 8, !tbaa !14
  %29 = icmp ne ptr %28, null
  call void @llvm.assume(i1 %29)
  br label %107

30:                                               ; No predecessors!
  br label %31

31:                                               ; preds = %30, %23
  call void @llvm.lifetime.start.p0(i64 8, ptr %5) #17
  %32 = load ptr, ptr %3, align 8, !tbaa !4
  %33 = getelementptr inbounds nuw %struct._zend_execute_data, ptr %32, i32 0, i32 4
  store ptr %33, ptr %5, align 8, !tbaa !9
  call void @llvm.lifetime.start.p0(i64 8, ptr %6) #17
  %34 = load ptr, ptr %5, align 8, !tbaa !9
  %35 = getelementptr inbounds nuw %struct._zval_struct, ptr %34, i32 0, i32 0
  %36 = load ptr, ptr %35, align 8, !tbaa !13
  %37 = load ptr, ptr %5, align 8, !tbaa !9
  %38 = getelementptr inbounds nuw %struct._zval_struct, ptr %37, i32 0, i32 0
  %39 = load ptr, ptr %38, align 8, !tbaa !13
  %40 = getelementptr inbounds nuw %struct._zend_object, ptr %39, i32 0, i32 4
  %41 = load ptr, ptr %40, align 8, !tbaa !118
  %42 = getelementptr inbounds nuw %struct._zend_object_handlers, ptr %41, i32 0, i32 0
  %43 = load i32, ptr %42, align 8, !tbaa !121
  %44 = sext i32 %43 to i64
  %45 = sub i64 0, %44
  %46 = getelementptr inbounds i8, ptr %36, i64 %45
  store ptr %46, ptr %6, align 8, !tbaa !123
  %47 = load ptr, ptr %6, align 8, !tbaa !123
  %48 = load ptr, ptr %47, align 8, !tbaa !13
  %49 = icmp ne ptr %48, null
  br i1 %49, label %58, label %50

50:                                               ; preds = %31
  %51 = load ptr, ptr @spl_ce_BadMethodCallException, align 8, !tbaa !53
  %52 = call ptr (ptr, i64, ptr, ...) @zend_throw_exception_ex(ptr noundef %51, i64 noundef 0, ptr noundef @.str.72)
  br label %53

53:                                               ; preds = %50
  %54 = load ptr, ptr getelementptr inbounds nuw (%struct._zend_executor_globals, ptr @executor_globals, i32 0, i32 54), align 8, !tbaa !14
  %55 = icmp ne ptr %54, null
  call void @llvm.assume(i1 %55)
  store i32 1, ptr %7, align 4
  br label %105

56:                                               ; No predecessors!
  br label %57

57:                                               ; preds = %56
  br label %58

58:                                               ; preds = %57, %31
  %59 = load ptr, ptr %6, align 8, !tbaa !123
  %60 = load ptr, ptr %59, align 8, !tbaa !13
  %61 = getelementptr inbounds nuw %struct._phar_archive_data, ptr %60, i32 0, i32 11
  %62 = load i32, ptr %61, align 8, !tbaa !183
  %63 = and i32 %62, 1048576
  %64 = icmp ne i32 %63, 0
  br i1 %64, label %65, label %77

65:                                               ; preds = %58
  br label %66

66:                                               ; preds = %65
  br label %67

67:                                               ; preds = %66
  call void @llvm.lifetime.start.p0(i64 8, ptr %8) #17
  %68 = load ptr, ptr %4, align 8, !tbaa !9
  store ptr %68, ptr %8, align 8, !tbaa !9
  %69 = load ptr, ptr %8, align 8, !tbaa !9
  %70 = getelementptr inbounds nuw %struct._zval_struct, ptr %69, i32 0, i32 0
  store i64 4096, ptr %70, align 8, !tbaa !13
  %71 = load ptr, ptr %8, align 8, !tbaa !9
  %72 = getelementptr inbounds nuw %struct._zval_struct, ptr %71, i32 0, i32 1
  store i32 4, ptr %72, align 8, !tbaa !13
  call void @llvm.lifetime.end.p0(i64 8, ptr %8) #17
  br label %73

73:                                               ; preds = %67
  br label %74

74:                                               ; preds = %73
  store i32 1, ptr %7, align 4
  br label %105

75:                                               ; No predecessors!
  br label %76

76:                                               ; preds = %75
  br label %77

77:                                               ; preds = %76, %58
  %78 = load ptr, ptr %6, align 8, !tbaa !123
  %79 = load ptr, ptr %78, align 8, !tbaa !13
  %80 = getelementptr inbounds nuw %struct._phar_archive_data, ptr %79, i32 0, i32 11
  %81 = load i32, ptr %80, align 8, !tbaa !183
  %82 = and i32 %81, 2097152
  %83 = icmp ne i32 %82, 0
  br i1 %83, label %84, label %96

84:                                               ; preds = %77
  br label %85

85:                                               ; preds = %84
  br label %86

86:                                               ; preds = %85
  call void @llvm.lifetime.start.p0(i64 8, ptr %9) #17
  %87 = load ptr, ptr %4, align 8, !tbaa !9
  store ptr %87, ptr %9, align 8, !tbaa !9
  %88 = load ptr, ptr %9, align 8, !tbaa !9
  %89 = getelementptr inbounds nuw %struct._zval_struct, ptr %88, i32 0, i32 0
  store i64 8192, ptr %89, align 8, !tbaa !13
  %90 = load ptr, ptr %9, align 8, !tbaa !9
  %91 = getelementptr inbounds nuw %struct._zval_struct, ptr %90, i32 0, i32 1
  store i32 4, ptr %91, align 8, !tbaa !13
  call void @llvm.lifetime.end.p0(i64 8, ptr %9) #17
  br label %92

92:                                               ; preds = %86
  br label %93

93:                                               ; preds = %92
  store i32 1, ptr %7, align 4
  br label %105

94:                                               ; No predecessors!
  br label %95

95:                                               ; preds = %94
  br label %96

96:                                               ; preds = %95, %77
  br label %97

97:                                               ; preds = %96
  br label %98

98:                                               ; preds = %97
  %99 = load ptr, ptr %4, align 8, !tbaa !9
  %100 = getelementptr inbounds nuw %struct._zval_struct, ptr %99, i32 0, i32 1
  store i32 2, ptr %100, align 8, !tbaa !13
  br label %101

101:                                              ; preds = %98
  br label %102

102:                                              ; preds = %101
  store i32 1, ptr %7, align 4
  br label %105

103:                                              ; No predecessors!
  br label %104

104:                                              ; preds = %103
  store i32 0, ptr %7, align 4
  br label %105

105:                                              ; preds = %104, %102, %93, %74, %53
  call void @llvm.lifetime.end.p0(i64 8, ptr %6) #17
  call void @llvm.lifetime.end.p0(i64 8, ptr %5) #17
  %106 = load i32, ptr %7, align 4
  switch i32 %106, label %108 [
    i32 0, label %107
    i32 1, label %107
  ]

107:                                              ; preds = %27, %105, %105
  ret void

108:                                              ; preds = %105
  unreachable
}