; Function Attrs: nounwind uwtable
define hidden void @zim_Phar_isCompressed(ptr noundef readonly captures(none) %0, ptr noundef writeonly captures(none) %1) #0 {
  %3 = getelementptr inbounds nuw i8, ptr %0, i64 44
  %4 = load i32, ptr %3, align 4, !tbaa !8
  %.not = icmp eq i32 %4, 0
  br i1 %.not, label %.critedge, label %5, !prof !105

5:                                                ; preds = %2
  tail call void @zend_wrong_parameters_none_error() #20
  %6 = load ptr, ptr getelementptr inbounds nuw (i8, ptr @executor_globals, i64 960), align 8, !tbaa !9
  %7 = icmp ne ptr %6, null
  tail call void @llvm.assume(i1 %7)
  br label %34

.critedge:                                        ; preds = %2
  %8 = getelementptr inbounds nuw i8, ptr %0, i64 32
  %9 = load ptr, ptr %8, align 8, !tbaa !8
  %10 = getelementptr inbounds nuw i8, ptr %9, i64 24
  %11 = load ptr, ptr %10, align 8, !tbaa !109
  %12 = load i32, ptr %11, align 8, !tbaa !112
  %13 = sext i32 %12 to i64
  %14 = sub nsw i64 0, %13
  %15 = getelementptr inbounds i8, ptr %9, i64 %14
  %16 = load ptr, ptr %15, align 8, !tbaa !8
  %.not14 = icmp eq ptr %16, null
  br i1 %.not14, label %17, label %22

17:                                               ; preds = %.critedge
  %18 = load ptr, ptr @spl_ce_BadMethodCallException, align 8, !tbaa !54
  %19 = tail call ptr (ptr, i64, ptr, ...) @zend_throw_exception_ex(ptr noundef %18, i64 noundef 0, ptr noundef nonnull @.str.72) #20
  %20 = load ptr, ptr getelementptr inbounds nuw (i8, ptr @executor_globals, i64 960), align 8, !tbaa !9
  %21 = icmp ne ptr %20, null
  tail call void @llvm.assume(i1 %21)
  br label %34

22:                                               ; preds = %.critedge
  %23 = getelementptr inbounds nuw i8, ptr %16, i64 232
  %24 = load i32, ptr %23, align 8, !tbaa !164
  %25 = and i32 %24, 1048576
  %.not15 = icmp eq i32 %25, 0
  br i1 %.not15, label %28, label %26

26:                                               ; preds = %22
  store i64 4096, ptr %1, align 8, !tbaa !8
  %27 = getelementptr inbounds nuw i8, ptr %1, i64 8
  store i32 4, ptr %27, align 8, !tbaa !8
  br label %34

28:                                               ; preds = %22
  %29 = and i32 %24, 2097152
  %.not16 = icmp eq i32 %29, 0
  br i1 %.not16, label %32, label %30

30:                                               ; preds = %28
  store i64 8192, ptr %1, align 8, !tbaa !8
  %31 = getelementptr inbounds nuw i8, ptr %1, i64 8
  store i32 4, ptr %31, align 8, !tbaa !8
  br label %34

32:                                               ; preds = %28
  %33 = getelementptr inbounds nuw i8, ptr %1, i64 8
  store i32 2, ptr %33, align 8, !tbaa !8
  br label %34

34:                                               ; preds = %17, %26, %30, %32, %5
  ret void
}